target datalayout = "e-m:e-p270:32:32-p271:32:32-p272:64:64-i64:64-i128:128-f80:128-n8:16:32:64-S128"
target triple = "x86_64-pc-linux-gnu"

%struct.evp_cipher_ctx_st = type { ptr, ptr, i32, i32, [16 x i8], [16 x i8], [32 x i8], i32, ptr, i32, i32, i64, ptr, i32, i32, [32 x i8], i64, ptr, ptr }
%struct.evp_cipher_st = type { i32, i32, i32, i32, i64, i32, ptr, ptr, ptr, i32, ptr, ptr, ptr, ptr, i32, ptr, ptr, ptr, %struct.CRYPTO_REF_COUNT, ptr, ptr, ptr, ptr, ptr, ptr, ptr, ptr, ptr, ptr, ptr, ptr, ptr, ptr, ptr, ptr, ptr, ptr, ptr, ptr }
%struct.CRYPTO_REF_COUNT = type { i32 }

@.str = private unnamed_addr constant [32 x i8] c"../openssl/crypto/evp/evp_enc.c\00", align 1
@__func__.EVP_EncryptUpdate = private unnamed_addr constant [18 x i8] c"EVP_EncryptUpdate\00", align 1

; Function Attrs: nounwind uwtable
define i32 @EVP_EncryptUpdate(ptr noundef %0, ptr noundef %1, ptr noundef %2, ptr noundef %3, i32 noundef %4) #0 {
  %6 = alloca i32, align 4
  %7 = alloca ptr, align 8
  %8 = alloca ptr, align 8
  %9 = alloca ptr, align 8
  %10 = alloca ptr, align 8
  %11 = alloca i32, align 4
  %12 = alloca i32, align 4
  %13 = alloca i64, align 8
  %14 = alloca i64, align 8
  %15 = alloca i32, align 4
  %16 = alloca i32, align 4
  store ptr %0, ptr %7, align 8, !tbaa !3
  store ptr %1, ptr %8, align 8, !tbaa !32
  store ptr %2, ptr %9, align 8, !tbaa !66
  store ptr %3, ptr %10, align 8, !tbaa !32
  store i32 %4, ptr %11, align 4, !tbaa !29
  call void @llvm.lifetime.start.p0(i64 4, ptr %12) #9
  call void @llvm.lifetime.start.p0(i64 8, ptr %13) #9
  call void @llvm.lifetime.start.p0(i64 8, ptr %14) #9
  %17 = load i32, ptr %11, align 4, !tbaa !29
  %18 = sext i32 %17 to i64
  store i64 %18, ptr %14, align 8, !tbaa !33
  call void @llvm.lifetime.start.p0(i64 4, ptr %15) #9
  %19 = load ptr, ptr %9, align 8, !tbaa !66
  %20 = icmp ne ptr %19, null
  %21 = xor i1 %20, true
  %22 = xor i1 %21, true
  %23 = zext i1 %22 to i32
  %24 = sext i32 %23 to i64
  %25 = call i64 @llvm.expect.i64(i64 %24, i64 1)
  %26 = icmp ne i64 %25, 0
  br i1 %26, label %27, label %29

27:                                               ; preds = %5
  %28 = load ptr, ptr %9, align 8, !tbaa !66
  store i32 0, ptr %28, align 4, !tbaa !29
  br label %30

29:                                               ; preds = %5
  call void @ERR_new()
  call void @ERR_set_debug(ptr noundef @.str, i32 noundef 980, ptr noundef @__func__.EVP_EncryptUpdate)
  call void (i32, i32, ptr, ...) @ERR_set_error(i32 noundef 6, i32 noundef 786690, ptr noundef null)
  store i32 0, ptr %6, align 4
  store i32 1, ptr %16, align 4
  br label %141

30:                                               ; preds = %27
  %31 = load ptr, ptr %7, align 8, !tbaa !3
  %32 = getelementptr inbounds nuw %struct.evp_cipher_ctx_st, ptr %31, i32 0, i32 2
  %33 = load i32, ptr %32, align 8, !tbaa !36
  %34 = icmp ne i32 %33, 0
  %35 = xor i1 %34, true
  %36 = xor i1 %35, true
  %37 = xor i1 %36, true
  %38 = zext i1 %37 to i32
  %39 = sext i32 %38 to i64
  %40 = call i64 @llvm.expect.i64(i64 %39, i64 0)
  %41 = icmp ne i64 %40, 0
  br i1 %41, label %42, label %43

42:                                               ; preds = %30
  call void @ERR_new()
  call void @ERR_set_debug(ptr noundef @.str, i32 noundef 986, ptr noundef @__func__.EVP_EncryptUpdate)
  call void (i32, i32, ptr, ...) @ERR_set_error(i32 noundef 6, i32 noundef 148, ptr noundef null)
  store i32 0, ptr %6, align 4
  store i32 1, ptr %16, align 4
  br label %141

43:                                               ; preds = %30
  %44 = load ptr, ptr %7, align 8, !tbaa !3
  %45 = getelementptr inbounds nuw %struct.evp_cipher_ctx_st, ptr %44, i32 0, i32 0
  %46 = load ptr, ptr %45, align 8, !tbaa !8
  %47 = icmp eq ptr %46, null
  %48 = xor i1 %47, true
  %49 = xor i1 %48, true
  %50 = zext i1 %49 to i32
  %51 = sext i32 %50 to i64
  %52 = call i64 @llvm.expect.i64(i64 %51, i64 0)
  %53 = icmp ne i64 %52, 0
  br i1 %53, label %54, label %55

54:                                               ; preds = %43
  call void @ERR_new()
  call void @ERR_set_debug(ptr noundef @.str, i32 noundef 991, ptr noundef @__func__.EVP_EncryptUpdate)
  call void (i32, i32, ptr, ...) @ERR_set_error(i32 noundef 6, i32 noundef 131, ptr noundef null)
  store i32 0, ptr %6, align 4
  store i32 1, ptr %16, align 4
  br label %141

55:                                               ; preds = %43
  %56 = load ptr, ptr %7, align 8, !tbaa !3
  %57 = getelementptr inbounds nuw %struct.evp_cipher_ctx_st, ptr %56, i32 0, i32 0
  %58 = load ptr, ptr %57, align 8, !tbaa !8
  %59 = getelementptr inbounds nuw %struct.evp_cipher_st, ptr %58, i32 0, i32 17
  %60 = load ptr, ptr %59, align 8, !tbaa !14
  %61 = icmp eq ptr %60, null
  %62 = xor i1 %61, true
  %63 = xor i1 %62, true
  %64 = zext i1 %63 to i32
  %65 = sext i32 %64 to i64
  %66 = call i64 @llvm.expect.i64(i64 %65, i64 0)
  %67 = icmp ne i64 %66, 0
  br i1 %67, label %68, label %69

68:                                               ; preds = %55
  br label %134

69:                                               ; preds = %55
  %70 = load ptr, ptr %7, align 8, !tbaa !3
  %71 = getelementptr inbounds nuw %struct.evp_cipher_ctx_st, ptr %70, i32 0, i32 0
  %72 = load ptr, ptr %71, align 8, !tbaa !8
  %73 = getelementptr inbounds nuw %struct.evp_cipher_st, ptr %72, i32 0, i32 1
  %74 = load i32, ptr %73, align 4, !tbaa !55
  store i32 %74, ptr %15, align 4, !tbaa !29
  %75 = load ptr, ptr %7, align 8, !tbaa !3
  %76 = getelementptr inbounds nuw %struct.evp_cipher_ctx_st, ptr %75, i32 0, i32 0
  %77 = load ptr, ptr %76, align 8, !tbaa !8
  %78 = getelementptr inbounds nuw %struct.evp_cipher_st, ptr %77, i32 0, i32 22
  %79 = load ptr, ptr %78, align 8, !tbaa !68
  %80 = icmp eq ptr %79, null
  br i1 %80, label %84, label %81

81:                                               ; preds = %69
  %82 = load i32, ptr %15, align 4, !tbaa !29
  %83 = icmp slt i32 %82, 1
  br label %84

84:                                               ; preds = %81, %69
  %85 = phi i1 [ true, %69 ], [ %83, %81 ]
  %86 = xor i1 %85, true
  %87 = xor i1 %86, true
  %88 = zext i1 %87 to i32
  %89 = sext i32 %88 to i64
  %90 = call i64 @llvm.expect.i64(i64 %89, i64 0)
  %91 = icmp ne i64 %90, 0
  br i1 %91, label %92, label %93

92:                                               ; preds = %84
  call void @ERR_new()
  call void @ERR_set_debug(ptr noundef @.str, i32 noundef 1001, ptr noundef @__func__.EVP_EncryptUpdate)
  call void (i32, i32, ptr, ...) @ERR_set_error(i32 noundef 6, i32 noundef 189, ptr noundef null)
  store i32 0, ptr %6, align 4
  store i32 1, ptr %16, align 4
  br label %141

93:                                               ; preds = %84
  %94 = load ptr, ptr %7, align 8, !tbaa !3
  %95 = getelementptr inbounds nuw %struct.evp_cipher_ctx_st, ptr %94, i32 0, i32 0
  %96 = load ptr, ptr %95, align 8, !tbaa !8
  %97 = getelementptr inbounds nuw %struct.evp_cipher_st, ptr %96, i32 0, i32 22
  %98 = load ptr, ptr %97, align 8, !tbaa !68
  %99 = load ptr, ptr %7, align 8, !tbaa !3
  %100 = getelementptr inbounds nuw %struct.evp_cipher_ctx_st, ptr %99, i32 0, i32 17
  %101 = load ptr, ptr %100, align 8, !tbaa !19
  %102 = load ptr, ptr %8, align 8, !tbaa !32
  %103 = load i64, ptr %14, align 8, !tbaa !33
  %104 = load i32, ptr %15, align 4, !tbaa !29
  %105 = icmp eq i32 %104, 1
  br i1 %105, label %106, label %107

106:                                              ; preds = %93
  br label %109

107:                                              ; preds = %93
  %108 = load i32, ptr %15, align 4, !tbaa !29
  br label %109

109:                                              ; preds = %107, %106
  %110 = phi i32 [ 0, %106 ], [ %108, %107 ]
  %111 = sext i32 %110 to i64
  %112 = add i64 %103, %111
  %113 = load ptr, ptr %10, align 8, !tbaa !32
  %114 = load i64, ptr %14, align 8, !tbaa !33
  %115 = call i32 %98(ptr noundef %101, ptr noundef %102, ptr noundef %13, i64 noundef %112, ptr noundef %113, i64 noundef %114)
  store i32 %115, ptr %12, align 4, !tbaa !29
  %116 = load i32, ptr %12, align 4, !tbaa !29
  %117 = icmp ne i32 %116, 0
  %118 = xor i1 %117, true
  %119 = xor i1 %118, true
  %120 = zext i1 %119 to i32
  %121 = sext i32 %120 to i64
  %122 = call i64 @llvm.expect.i64(i64 %121, i64 1)
  %123 = icmp ne i64 %122, 0
  br i1 %123, label %124, label %132

124:                                              ; preds = %109
  %125 = load i64, ptr %13, align 8, !tbaa !33
  %126 = icmp ugt i64 %125, 2147483647
  br i1 %126, label %127, label %128

127:                                              ; preds = %124
  call void @ERR_new()
  call void @ERR_set_debug(ptr noundef @.str, i32 noundef 1011, ptr noundef @__func__.EVP_EncryptUpdate)
  call void (i32, i32, ptr, ...) @ERR_set_error(i32 noundef 6, i32 noundef 189, ptr noundef null)
  store i32 0, ptr %6, align 4
  store i32 1, ptr %16, align 4
  br label %141

128:                                              ; preds = %124
  %129 = load i64, ptr %13, align 8, !tbaa !33
  %130 = trunc i64 %129 to i32
  %131 = load ptr, ptr %9, align 8, !tbaa !66
  store i32 %130, ptr %131, align 4, !tbaa !29
  br label %132

132:                                              ; preds = %128, %109
  %133 = load i32, ptr %12, align 4, !tbaa !29
  store i32 %133, ptr %6, align 4
  store i32 1, ptr %16, align 4
  br label %141

134:                                              ; preds = %68
  %135 = load ptr, ptr %7, align 8, !tbaa !3
  %136 = load ptr, ptr %8, align 8, !tbaa !32
  %137 = load ptr, ptr %9, align 8, !tbaa !66
  %138 = load ptr, ptr %10, align 8, !tbaa !32
  %139 = load i32, ptr %11, align 4, !tbaa !29
  %140 = call i32 @evp_EncryptDecryptUpdate(ptr noundef %135, ptr noundef %136, ptr noundef %137, ptr noundef %138, i32 noundef %139)
  store i32 %140, ptr %6, align 4
  store i32 1, ptr %16, align 4
  br label %141

141:                                              ; preds = %134, %132, %127, %92, %54, %42, %29
  call void @llvm.lifetime.end.p0(i64 4, ptr %15) #9
  call void @llvm.lifetime.end.p0(i64 8, ptr %14) #9
  call void @llvm.lifetime.end.p0(i64 8, ptr %13) #9
  call void @llvm.lifetime.end.p0(i64 4, ptr %12) #9
  %142 = load i32, ptr %6, align 4
  ret i32 %142
}