; Function Attrs: nounwind uwtable
define i32 @EVP_EncryptUpdate(ptr noundef %0, ptr noundef %1, ptr noundef captures(address_is_null) %2, ptr noundef %3, i32 noundef %4) local_unnamed_addr #0 {
  %6 = alloca i64, align 8
  call void @llvm.lifetime.start.p0(i64 8, ptr nonnull %6) #10
  %7 = sext i32 %4 to i64
  %.not = icmp eq ptr %2, null
  br i1 %.not, label %11, label %8, !prof !61

8:                                                ; preds = %5
  store i32 0, ptr %2, align 4, !tbaa !35
  %9 = getelementptr inbounds nuw i8, ptr %0, i64 16
  %10 = load i32, ptr %9, align 8, !tbaa !27
  %.not30 = icmp eq i32 %10, 0
  br i1 %.not30, label %12, label %13, !prof !61

11:                                               ; preds = %5
  tail call void @ERR_new() #10
  tail call void @ERR_set_debug(ptr noundef nonnull @.str, i32 noundef 980, ptr noundef nonnull @__func__.EVP_EncryptUpdate) #10
  tail call void (i32, i32, ptr, ...) @ERR_set_error(i32 noundef 6, i32 noundef 786690, ptr noundef null) #10
  br label %46

12:                                               ; preds = %8
  tail call void @ERR_new() #10
  tail call void @ERR_set_debug(ptr noundef nonnull @.str, i32 noundef 986, ptr noundef nonnull @__func__.EVP_EncryptUpdate) #10
  tail call void (i32, i32, ptr, ...) @ERR_set_error(i32 noundef 6, i32 noundef 148, ptr noundef null) #10
  br label %46

13:                                               ; preds = %8
  %14 = load ptr, ptr %0, align 8, !tbaa !3
  %15 = icmp eq ptr %14, null
  br i1 %15, label %16, label %17, !prof !61

16:                                               ; preds = %13
  tail call void @ERR_new() #10
  tail call void @ERR_set_debug(ptr noundef nonnull @.str, i32 noundef 991, ptr noundef nonnull @__func__.EVP_EncryptUpdate) #10
  tail call void (i32, i32, ptr, ...) @ERR_set_error(i32 noundef 6, i32 noundef 131, ptr noundef null) #10
  br label %46

17:                                               ; preds = %13
  %18 = getelementptr inbounds nuw i8, ptr %14, i64 120
  %19 = load ptr, ptr %18, align 8, !tbaa !12
  %20 = icmp eq ptr %19, null
  br i1 %20, label %44, label %21, !prof !61

21:                                               ; preds = %17
  %22 = getelementptr inbounds nuw i8, ptr %14, i64 4
  %23 = load i32, ptr %22, align 4, !tbaa !54
  %24 = getelementptr inbounds nuw i8, ptr %14, i64 160
  %25 = load ptr, ptr %24, align 8, !tbaa !62
  %26 = icmp eq ptr %25, null
  %27 = icmp slt i32 %23, 1
  %28 = select i1 %26, i1 true, i1 %27, !prof !61
  br i1 %28, label %29, label %30, !prof !61

29:                                               ; preds = %21
  tail call void @ERR_new() #10
  tail call void @ERR_set_debug(ptr noundef nonnull @.str, i32 noundef 1001, ptr noundef nonnull @__func__.EVP_EncryptUpdate) #10
  tail call void (i32, i32, ptr, ...) @ERR_set_error(i32 noundef 6, i32 noundef 189, ptr noundef null) #10
  br label %46

30:                                               ; preds = %21
  %31 = getelementptr inbounds nuw i8, ptr %0, i64 176
  %32 = load ptr, ptr %31, align 8, !tbaa !17
  %33 = icmp eq i32 %23, 1
  %34 = select i1 %33, i32 0, i32 %23
  %35 = zext nneg i32 %34 to i64
  %36 = add nsw i64 %35, %7
  %37 = call i32 %25(ptr noundef %32, ptr noundef %1, ptr noundef nonnull %6, i64 noundef %36, ptr noundef %3, i64 noundef %7) #10
  %.not31 = icmp eq i32 %37, 0
  br i1 %.not31, label %46, label %38, !prof !61

38:                                               ; preds = %30
  %39 = load i64, ptr %6, align 8, !tbaa !39
  %40 = icmp ugt i64 %39, 2147483647
  br i1 %40, label %41, label %42

41:                                               ; preds = %38
  call void @ERR_new() #10
  call void @ERR_set_debug(ptr noundef nonnull @.str, i32 noundef 1011, ptr noundef nonnull @__func__.EVP_EncryptUpdate) #10
  call void (i32, i32, ptr, ...) @ERR_set_error(i32 noundef 6, i32 noundef 189, ptr noundef null) #10
  br label %46

42:                                               ; preds = %38
  %43 = trunc nuw nsw i64 %39 to i32
  store i32 %43, ptr %2, align 4, !tbaa !35
  br label %46

44:                                               ; preds = %17
  %45 = tail call fastcc i32 @evp_EncryptDecryptUpdate(ptr noundef nonnull %0, ptr noundef %1, ptr noundef %2, ptr noundef %3, i32 noundef %4)
  br label %46

46:                                               ; preds = %30, %42, %44, %41, %29, %16, %12, %11
  %.0 = phi i32 [ 0, %12 ], [ 0, %16 ], [ %45, %44 ], [ 0, %29 ], [ 0, %41 ], [ 0, %11 ], [ %37, %42 ], [ 0, %30 ]
  call void @llvm.lifetime.end.p0(i64 8, ptr nonnull %6) #10
  ret i32 %.0
}